ccopy_reg
_reconstructor
p0
(cFWCore.ParameterSet.Config
Process
p1
c__builtin__
object
p2
Ntp3
Rp4
(dp5
S'_Process__sequences'
p6
(dp7
sS'_Process__services'
p8
(dp9
sS'_Process__source'
p10
g0
(cFWCore.ParameterSet.Modules
Source
p11
g2
Ntp12
Rp13
(dp14
S'_Parameterizable__parameterNames'
p15
(lp16
S'fileNames'
p17
asS'_isFrozen'
p18
I00
sS'_isModified'
p19
I00
sS'_lineNumber'
p20
I175
sS'_filename'
p21
S'/cvmfs/cms.cern.ch/slc6_amd64_gcc491/cms/cmssw-patch/CMSSW_7_5_8_patch3/python/FWCore/ParameterSet/Modules.py'
p22
sg17
g0
(cFWCore.ParameterSet.Types
vstring
p23
c__builtin__
list
p24
(lp25
tp26
Rp27
(dp28
g18
I00
sS'_ParameterTypeBase__isTracked'
p29
I00
sg19
I00
sS'_nPerLine'
p30
I1
sbsS'_TypedParameterizable__type'
p31
S'PoolSource'
p32
sbsS'_Process__aliases'
p33
(dp34
sS'_Process__psets'
p35
(dp36
S'options'
p37
g0
(cFWCore.ParameterSet.Types
PSet
p38
g2
Ntp39
Rp40
(dp41
g18
I00
sg29
I00
sg19
I00
sS'wantSummary'
p42
g0
(cFWCore.ParameterSet.Types
bool
p43
g2
Ntp44
Rp45
(dp46
g18
I00
sg29
I00
sS'_value'
p47
I01
sg19
I00
sbsg15
(lp48
g42
asS'_Labelable__label'
p49
g37
sbssS'_Process__essources'
p50
(dp51
sg32
g13
sS'source'
p52
g13
sS'_Process__vpsets'
p53
(dp54
sS'_Process__name'
p55
S'Dummy'
p56
sS'_cloneToObjectDict'
p57
(dp58
I37062864
g40
ssS'_Process__esprefers'
p59
(dp60
sS'_Process__schedule'
p61
NsS'_Process__partialschedules'
p62
(dp63
sS'_Process__outputmodules'
p64
(dp65
sS'_Process__analyzers'
p66
(dp67
sS'_Process__InExtendCall'
p68
I00
sS'_Process__modifiers'
p69
(tsS'_Process__producers'
p70
(dp71
sS'_Process__filters'
p72
(dp73
sS'_Process__looper'
p74
NsS'_Process__endpaths'
p75
g0
(cFWCore.ParameterSet.DictTypes
SortedKeysDict
p76
c__builtin__
dict
p77
(dp78
tp79
Rp80
(dp81
S'list'
p82
(lp83
sbsS'_Process__esproducers'
p84
(dp85
sS'_Process__paths'
p86
g0
(g76
g77
(dp87
tp88
Rp89
(dp90
g82
(lp91
sbsS'_Process__subProcess'
p92
Nsg37
g40
sS'_Process__isStrict'
p93
I00
sb.