(dp1
S'OriginalConfig'
p2
ccopy_reg
_reconstructor
p3
(cWMCore.Configuration
Configuration
p4
c__builtin__
object
p5
NtRp6
(dp7
S'Site'
p8
g3
(cWMCore.Configuration
ConfigSection
p9
g5
NtRp10
(dp11
S'_internal_skipChecks'
p12
I00
sS'_internal_documentation'
p13
S''
sS'_internal_settings'
p14
c__builtin__
set
p15
((lp16
S'whitelist'
p17
aS'storageSite'
p18
atRp19
sS'_internal_name'
p20
g8
sS'_internal_docstrings'
p21
(dp22
sS'_internal_children'
p23
g15
((ltRp24
sg18
S'T3_US_FNALLPC'
p25
sS'_internal_parent_ref'
p26
Nsg17
(lp27
g25
asbsS'_internal_sections'
p28
(lp29
S'General'
p30
aS'JobType'
p31
aS'Data'
p32
ag8
aS'Debug'
p33
asg30
g3
(g9
g5
NtRp34
(dp35
g12
I00
sg13
S''
sg14
g15
((lp36
S'workArea'
p37
aS'requestName'
p38
atRp39
sg20
g30
sg21
(dp40
sg23
g15
((ltRp41
sg38
S'PbPbMC_mtd_jettrackcorr_Sep9'
p42
sg26
Nsg37
g42
sbsS'_internal_webapps'
p43
(lp44
sS'_internal_components'
p45
(lp46
sg33
g3
(g9
g5
NtRp47
(dp48
S'extraJDL'
p49
(lp50
S'+CMS_ALLOW_OVERFLOW=False'
p51
asg12
I00
sg13
S''
sg14
g15
((lp52
g49
atRp53
sg20
g33
sg21
(dp54
sg23
g15
((ltRp55
sg26
Nsbsg32
g3
(g9
g5
NtRp56
(dp57
g12
I00
sS'unitsPerJob'
p58
I1
sg13
S''
sg14
g15
((lp59
S'totalUnits'
p60
ag58
aS'userInputFiles'
p61
aS'splitting'
p62
aS'outLFNDirBase'
p63
aS'outputPrimaryDataset'
p64
aS'publication'
p65
atRp66
sg63
S'/store/user/dhangal/PbPbMC_mtd_jettrackcorr_Sep9'
p67
sg20
g32
sg62
S'FileBased'
p68
sg21
(dp69
sg23
g15
((ltRp70
sg65
I00
sg64
S'incPbPbHistograms'
p71
sg26
Nsg61
(lp72
S'/store/user/dhangal/PythiaHydjet_MTD_Sep8/QCD_Pt_120_170_5p5TeV_TuneCP5_Pythia8/crab_PythiaHydjet_MTD_Sep8/190908_171953/0000/HiForestAOD_1.root\n'
p73
aS'/store/user/dhangal/PythiaHydjet_MTD_Sep8/QCD_Pt_120_170_5p5TeV_TuneCP5_Pythia8/crab_PythiaHydjet_MTD_Sep8/190908_171953/0000/HiForestAOD_10.root\n'
p74
aS'/store/user/dhangal/PythiaHydjet_MTD_Sep8/QCD_Pt_120_170_5p5TeV_TuneCP5_Pythia8/crab_PythiaHydjet_MTD_Sep8/190908_171953/0000/HiForestAOD_100.root\n'
p75
aS'/store/user/dhangal/PythiaHydjet_MTD_Sep8/QCD_Pt_120_170_5p5TeV_TuneCP5_Pythia8/crab_PythiaHydjet_MTD_Sep8/190908_171953/0000/HiForestAOD_101.root\n'
p76
aS'/store/user/dhangal/PythiaHydjet_MTD_Sep8/QCD_Pt_120_170_5p5TeV_TuneCP5_Pythia8/crab_PythiaHydjet_MTD_Sep8/190908_171953/0000/HiForestAOD_102.root\n'
p77
aS'/store/user/dhangal/PythiaHydjet_MTD_Sep8/QCD_Pt_120_170_5p5TeV_TuneCP5_Pythia8/crab_PythiaHydjet_MTD_Sep8/190908_171953/0000/HiForestAOD_103.root\n'
p78
aS'/store/user/dhangal/PythiaHydjet_MTD_Sep8/QCD_Pt_120_170_5p5TeV_TuneCP5_Pythia8/crab_PythiaHydjet_MTD_Sep8/190908_171953/0000/HiForestAOD_104.root\n'
p79
aS'/store/user/dhangal/PythiaHydjet_MTD_Sep8/QCD_Pt_120_170_5p5TeV_TuneCP5_Pythia8/crab_PythiaHydjet_MTD_Sep8/190908_171953/0000/HiForestAOD_105.root\n'
p80
aS'/store/user/dhangal/PythiaHydjet_MTD_Sep8/QCD_Pt_120_170_5p5TeV_TuneCP5_Pythia8/crab_PythiaHydjet_MTD_Sep8/190908_171953/0000/HiForestAOD_106.root\n'
p81
aS'/store/user/dhangal/PythiaHydjet_MTD_Sep8/QCD_Pt_120_170_5p5TeV_TuneCP5_Pythia8/crab_PythiaHydjet_MTD_Sep8/190908_171953/0000/HiForestAOD_107.root\n'
p82
aS'/store/user/dhangal/PythiaHydjet_MTD_Sep8/QCD_Pt_120_170_5p5TeV_TuneCP5_Pythia8/crab_PythiaHydjet_MTD_Sep8/190908_171953/0000/HiForestAOD_108.root\n'
p83
aS'/store/user/dhangal/PythiaHydjet_MTD_Sep8/QCD_Pt_120_170_5p5TeV_TuneCP5_Pythia8/crab_PythiaHydjet_MTD_Sep8/190908_171953/0000/HiForestAOD_109.root\n'
p84
aS'/store/user/dhangal/PythiaHydjet_MTD_Sep8/QCD_Pt_120_170_5p5TeV_TuneCP5_Pythia8/crab_PythiaHydjet_MTD_Sep8/190908_171953/0000/HiForestAOD_11.root\n'
p85
aS'/store/user/dhangal/PythiaHydjet_MTD_Sep8/QCD_Pt_120_170_5p5TeV_TuneCP5_Pythia8/crab_PythiaHydjet_MTD_Sep8/190908_171953/0000/HiForestAOD_110.root\n'
p86
aS'/store/user/dhangal/PythiaHydjet_MTD_Sep8/QCD_Pt_120_170_5p5TeV_TuneCP5_Pythia8/crab_PythiaHydjet_MTD_Sep8/190908_171953/0000/HiForestAOD_111.root\n'
p87
aS'/store/user/dhangal/PythiaHydjet_MTD_Sep8/QCD_Pt_120_170_5p5TeV_TuneCP5_Pythia8/crab_PythiaHydjet_MTD_Sep8/190908_171953/0000/HiForestAOD_112.root\n'
p88
aS'/store/user/dhangal/PythiaHydjet_MTD_Sep8/QCD_Pt_120_170_5p5TeV_TuneCP5_Pythia8/crab_PythiaHydjet_MTD_Sep8/190908_171953/0000/HiForestAOD_113.root\n'
p89
aS'/store/user/dhangal/PythiaHydjet_MTD_Sep8/QCD_Pt_120_170_5p5TeV_TuneCP5_Pythia8/crab_PythiaHydjet_MTD_Sep8/190908_171953/0000/HiForestAOD_114.root\n'
p90
aS'/store/user/dhangal/PythiaHydjet_MTD_Sep8/QCD_Pt_120_170_5p5TeV_TuneCP5_Pythia8/crab_PythiaHydjet_MTD_Sep8/190908_171953/0000/HiForestAOD_115.root\n'
p91
aS'/store/user/dhangal/PythiaHydjet_MTD_Sep8/QCD_Pt_120_170_5p5TeV_TuneCP5_Pythia8/crab_PythiaHydjet_MTD_Sep8/190908_171953/0000/HiForestAOD_116.root\n'
p92
aS'/store/user/dhangal/PythiaHydjet_MTD_Sep8/QCD_Pt_120_170_5p5TeV_TuneCP5_Pythia8/crab_PythiaHydjet_MTD_Sep8/190908_171953/0000/HiForestAOD_117.root\n'
p93
aS'/store/user/dhangal/PythiaHydjet_MTD_Sep8/QCD_Pt_120_170_5p5TeV_TuneCP5_Pythia8/crab_PythiaHydjet_MTD_Sep8/190908_171953/0000/HiForestAOD_118.root\n'
p94
aS'/store/user/dhangal/PythiaHydjet_MTD_Sep8/QCD_Pt_120_170_5p5TeV_TuneCP5_Pythia8/crab_PythiaHydjet_MTD_Sep8/190908_171953/0000/HiForestAOD_119.root\n'
p95
aS'/store/user/dhangal/PythiaHydjet_MTD_Sep8/QCD_Pt_120_170_5p5TeV_TuneCP5_Pythia8/crab_PythiaHydjet_MTD_Sep8/190908_171953/0000/HiForestAOD_12.root\n'
p96
aS'/store/user/dhangal/PythiaHydjet_MTD_Sep8/QCD_Pt_120_170_5p5TeV_TuneCP5_Pythia8/crab_PythiaHydjet_MTD_Sep8/190908_171953/0000/HiForestAOD_120.root\n'
p97
aS'/store/user/dhangal/PythiaHydjet_MTD_Sep8/QCD_Pt_120_170_5p5TeV_TuneCP5_Pythia8/crab_PythiaHydjet_MTD_Sep8/190908_171953/0000/HiForestAOD_121.root\n'
p98
aS'/store/user/dhangal/PythiaHydjet_MTD_Sep8/QCD_Pt_120_170_5p5TeV_TuneCP5_Pythia8/crab_PythiaHydjet_MTD_Sep8/190908_171953/0000/HiForestAOD_122.root\n'
p99
aS'/store/user/dhangal/PythiaHydjet_MTD_Sep8/QCD_Pt_120_170_5p5TeV_TuneCP5_Pythia8/crab_PythiaHydjet_MTD_Sep8/190908_171953/0000/HiForestAOD_123.root\n'
p100
aS'/store/user/dhangal/PythiaHydjet_MTD_Sep8/QCD_Pt_120_170_5p5TeV_TuneCP5_Pythia8/crab_PythiaHydjet_MTD_Sep8/190908_171953/0000/HiForestAOD_124.root\n'
p101
aS'/store/user/dhangal/PythiaHydjet_MTD_Sep8/QCD_Pt_120_170_5p5TeV_TuneCP5_Pythia8/crab_PythiaHydjet_MTD_Sep8/190908_171953/0000/HiForestAOD_125.root\n'
p102
aS'/store/user/dhangal/PythiaHydjet_MTD_Sep8/QCD_Pt_120_170_5p5TeV_TuneCP5_Pythia8/crab_PythiaHydjet_MTD_Sep8/190908_171953/0000/HiForestAOD_126.root\n'
p103
aS'/store/user/dhangal/PythiaHydjet_MTD_Sep8/QCD_Pt_120_170_5p5TeV_TuneCP5_Pythia8/crab_PythiaHydjet_MTD_Sep8/190908_171953/0000/HiForestAOD_127.root\n'
p104
aS'/store/user/dhangal/PythiaHydjet_MTD_Sep8/QCD_Pt_120_170_5p5TeV_TuneCP5_Pythia8/crab_PythiaHydjet_MTD_Sep8/190908_171953/0000/HiForestAOD_128.root\n'
p105
aS'/store/user/dhangal/PythiaHydjet_MTD_Sep8/QCD_Pt_120_170_5p5TeV_TuneCP5_Pythia8/crab_PythiaHydjet_MTD_Sep8/190908_171953/0000/HiForestAOD_129.root\n'
p106
aS'/store/user/dhangal/PythiaHydjet_MTD_Sep8/QCD_Pt_120_170_5p5TeV_TuneCP5_Pythia8/crab_PythiaHydjet_MTD_Sep8/190908_171953/0000/HiForestAOD_13.root\n'
p107
aS'/store/user/dhangal/PythiaHydjet_MTD_Sep8/QCD_Pt_120_170_5p5TeV_TuneCP5_Pythia8/crab_PythiaHydjet_MTD_Sep8/190908_171953/0000/HiForestAOD_130.root\n'
p108
aS'/store/user/dhangal/PythiaHydjet_MTD_Sep8/QCD_Pt_120_170_5p5TeV_TuneCP5_Pythia8/crab_PythiaHydjet_MTD_Sep8/190908_171953/0000/HiForestAOD_131.root\n'
p109
aS'/store/user/dhangal/PythiaHydjet_MTD_Sep8/QCD_Pt_120_170_5p5TeV_TuneCP5_Pythia8/crab_PythiaHydjet_MTD_Sep8/190908_171953/0000/HiForestAOD_132.root\n'
p110
aS'/store/user/dhangal/PythiaHydjet_MTD_Sep8/QCD_Pt_120_170_5p5TeV_TuneCP5_Pythia8/crab_PythiaHydjet_MTD_Sep8/190908_171953/0000/HiForestAOD_133.root\n'
p111
aS'/store/user/dhangal/PythiaHydjet_MTD_Sep8/QCD_Pt_120_170_5p5TeV_TuneCP5_Pythia8/crab_PythiaHydjet_MTD_Sep8/190908_171953/0000/HiForestAOD_134.root\n'
p112
aS'/store/user/dhangal/PythiaHydjet_MTD_Sep8/QCD_Pt_120_170_5p5TeV_TuneCP5_Pythia8/crab_PythiaHydjet_MTD_Sep8/190908_171953/0000/HiForestAOD_135.root\n'
p113
aS'/store/user/dhangal/PythiaHydjet_MTD_Sep8/QCD_Pt_120_170_5p5TeV_TuneCP5_Pythia8/crab_PythiaHydjet_MTD_Sep8/190908_171953/0000/HiForestAOD_136.root\n'
p114
aS'/store/user/dhangal/PythiaHydjet_MTD_Sep8/QCD_Pt_120_170_5p5TeV_TuneCP5_Pythia8/crab_PythiaHydjet_MTD_Sep8/190908_171953/0000/HiForestAOD_137.root\n'
p115
aS'/store/user/dhangal/PythiaHydjet_MTD_Sep8/QCD_Pt_120_170_5p5TeV_TuneCP5_Pythia8/crab_PythiaHydjet_MTD_Sep8/190908_171953/0000/HiForestAOD_138.root\n'
p116
aS'/store/user/dhangal/PythiaHydjet_MTD_Sep8/QCD_Pt_120_170_5p5TeV_TuneCP5_Pythia8/crab_PythiaHydjet_MTD_Sep8/190908_171953/0000/HiForestAOD_139.root\n'
p117
aS'/store/user/dhangal/PythiaHydjet_MTD_Sep8/QCD_Pt_120_170_5p5TeV_TuneCP5_Pythia8/crab_PythiaHydjet_MTD_Sep8/190908_171953/0000/HiForestAOD_14.root\n'
p118
aS'/store/user/dhangal/PythiaHydjet_MTD_Sep8/QCD_Pt_120_170_5p5TeV_TuneCP5_Pythia8/crab_PythiaHydjet_MTD_Sep8/190908_171953/0000/HiForestAOD_140.root\n'
p119
aS'/store/user/dhangal/PythiaHydjet_MTD_Sep8/QCD_Pt_120_170_5p5TeV_TuneCP5_Pythia8/crab_PythiaHydjet_MTD_Sep8/190908_171953/0000/HiForestAOD_141.root\n'
p120
aS'/store/user/dhangal/PythiaHydjet_MTD_Sep8/QCD_Pt_120_170_5p5TeV_TuneCP5_Pythia8/crab_PythiaHydjet_MTD_Sep8/190908_171953/0000/HiForestAOD_142.root\n'
p121
aS'/store/user/dhangal/PythiaHydjet_MTD_Sep8/QCD_Pt_120_170_5p5TeV_TuneCP5_Pythia8/crab_PythiaHydjet_MTD_Sep8/190908_171953/0000/HiForestAOD_143.root\n'
p122
aS'/store/user/dhangal/PythiaHydjet_MTD_Sep8/QCD_Pt_120_170_5p5TeV_TuneCP5_Pythia8/crab_PythiaHydjet_MTD_Sep8/190908_171953/0000/HiForestAOD_144.root\n'
p123
aS'/store/user/dhangal/PythiaHydjet_MTD_Sep8/QCD_Pt_120_170_5p5TeV_TuneCP5_Pythia8/crab_PythiaHydjet_MTD_Sep8/190908_171953/0000/HiForestAOD_145.root\n'
p124
aS'/store/user/dhangal/PythiaHydjet_MTD_Sep8/QCD_Pt_120_170_5p5TeV_TuneCP5_Pythia8/crab_PythiaHydjet_MTD_Sep8/190908_171953/0000/HiForestAOD_146.root\n'
p125
aS'/store/user/dhangal/PythiaHydjet_MTD_Sep8/QCD_Pt_120_170_5p5TeV_TuneCP5_Pythia8/crab_PythiaHydjet_MTD_Sep8/190908_171953/0000/HiForestAOD_147.root\n'
p126
aS'/store/user/dhangal/PythiaHydjet_MTD_Sep8/QCD_Pt_120_170_5p5TeV_TuneCP5_Pythia8/crab_PythiaHydjet_MTD_Sep8/190908_171953/0000/HiForestAOD_148.root\n'
p127
aS'/store/user/dhangal/PythiaHydjet_MTD_Sep8/QCD_Pt_120_170_5p5TeV_TuneCP5_Pythia8/crab_PythiaHydjet_MTD_Sep8/190908_171953/0000/HiForestAOD_149.root\n'
p128
aS'/store/user/dhangal/PythiaHydjet_MTD_Sep8/QCD_Pt_120_170_5p5TeV_TuneCP5_Pythia8/crab_PythiaHydjet_MTD_Sep8/190908_171953/0000/HiForestAOD_15.root\n'
p129
aS'/store/user/dhangal/PythiaHydjet_MTD_Sep8/QCD_Pt_120_170_5p5TeV_TuneCP5_Pythia8/crab_PythiaHydjet_MTD_Sep8/190908_171953/0000/HiForestAOD_150.root\n'
p130
aS'/store/user/dhangal/PythiaHydjet_MTD_Sep8/QCD_Pt_120_170_5p5TeV_TuneCP5_Pythia8/crab_PythiaHydjet_MTD_Sep8/190908_171953/0000/HiForestAOD_151.root\n'
p131
aS'/store/user/dhangal/PythiaHydjet_MTD_Sep8/QCD_Pt_120_170_5p5TeV_TuneCP5_Pythia8/crab_PythiaHydjet_MTD_Sep8/190908_171953/0000/HiForestAOD_152.root\n'
p132
aS'/store/user/dhangal/PythiaHydjet_MTD_Sep8/QCD_Pt_120_170_5p5TeV_TuneCP5_Pythia8/crab_PythiaHydjet_MTD_Sep8/190908_171953/0000/HiForestAOD_153.root\n'
p133
aS'/store/user/dhangal/PythiaHydjet_MTD_Sep8/QCD_Pt_120_170_5p5TeV_TuneCP5_Pythia8/crab_PythiaHydjet_MTD_Sep8/190908_171953/0000/HiForestAOD_154.root\n'
p134
aS'/store/user/dhangal/PythiaHydjet_MTD_Sep8/QCD_Pt_120_170_5p5TeV_TuneCP5_Pythia8/crab_PythiaHydjet_MTD_Sep8/190908_171953/0000/HiForestAOD_155.root\n'
p135
aS'/store/user/dhangal/PythiaHydjet_MTD_Sep8/QCD_Pt_120_170_5p5TeV_TuneCP5_Pythia8/crab_PythiaHydjet_MTD_Sep8/190908_171953/0000/HiForestAOD_156.root\n'
p136
aS'/store/user/dhangal/PythiaHydjet_MTD_Sep8/QCD_Pt_120_170_5p5TeV_TuneCP5_Pythia8/crab_PythiaHydjet_MTD_Sep8/190908_171953/0000/HiForestAOD_157.root\n'
p137
aS'/store/user/dhangal/PythiaHydjet_MTD_Sep8/QCD_Pt_120_170_5p5TeV_TuneCP5_Pythia8/crab_PythiaHydjet_MTD_Sep8/190908_171953/0000/HiForestAOD_158.root\n'
p138
aS'/store/user/dhangal/PythiaHydjet_MTD_Sep8/QCD_Pt_120_170_5p5TeV_TuneCP5_Pythia8/crab_PythiaHydjet_MTD_Sep8/190908_171953/0000/HiForestAOD_159.root\n'
p139
aS'/store/user/dhangal/PythiaHydjet_MTD_Sep8/QCD_Pt_120_170_5p5TeV_TuneCP5_Pythia8/crab_PythiaHydjet_MTD_Sep8/190908_171953/0000/HiForestAOD_16.root\n'
p140
aS'/store/user/dhangal/PythiaHydjet_MTD_Sep8/QCD_Pt_120_170_5p5TeV_TuneCP5_Pythia8/crab_PythiaHydjet_MTD_Sep8/190908_171953/0000/HiForestAOD_160.root\n'
p141
aS'/store/user/dhangal/PythiaHydjet_MTD_Sep8/QCD_Pt_120_170_5p5TeV_TuneCP5_Pythia8/crab_PythiaHydjet_MTD_Sep8/190908_171953/0000/HiForestAOD_161.root\n'
p142
aS'/store/user/dhangal/PythiaHydjet_MTD_Sep8/QCD_Pt_120_170_5p5TeV_TuneCP5_Pythia8/crab_PythiaHydjet_MTD_Sep8/190908_171953/0000/HiForestAOD_162.root\n'
p143
aS'/store/user/dhangal/PythiaHydjet_MTD_Sep8/QCD_Pt_120_170_5p5TeV_TuneCP5_Pythia8/crab_PythiaHydjet_MTD_Sep8/190908_171953/0000/HiForestAOD_163.root\n'
p144
aS'/store/user/dhangal/PythiaHydjet_MTD_Sep8/QCD_Pt_120_170_5p5TeV_TuneCP5_Pythia8/crab_PythiaHydjet_MTD_Sep8/190908_171953/0000/HiForestAOD_164.root\n'
p145
aS'/store/user/dhangal/PythiaHydjet_MTD_Sep8/QCD_Pt_120_170_5p5TeV_TuneCP5_Pythia8/crab_PythiaHydjet_MTD_Sep8/190908_171953/0000/HiForestAOD_165.root\n'
p146
aS'/store/user/dhangal/PythiaHydjet_MTD_Sep8/QCD_Pt_120_170_5p5TeV_TuneCP5_Pythia8/crab_PythiaHydjet_MTD_Sep8/190908_171953/0000/HiForestAOD_166.root\n'
p147
aS'/store/user/dhangal/PythiaHydjet_MTD_Sep8/QCD_Pt_120_170_5p5TeV_TuneCP5_Pythia8/crab_PythiaHydjet_MTD_Sep8/190908_171953/0000/HiForestAOD_167.root\n'
p148
aS'/store/user/dhangal/PythiaHydjet_MTD_Sep8/QCD_Pt_120_170_5p5TeV_TuneCP5_Pythia8/crab_PythiaHydjet_MTD_Sep8/190908_171953/0000/HiForestAOD_168.root\n'
p149
aS'/store/user/dhangal/PythiaHydjet_MTD_Sep8/QCD_Pt_120_170_5p5TeV_TuneCP5_Pythia8/crab_PythiaHydjet_MTD_Sep8/190908_171953/0000/HiForestAOD_169.root\n'
p150
aS'/store/user/dhangal/PythiaHydjet_MTD_Sep8/QCD_Pt_120_170_5p5TeV_TuneCP5_Pythia8/crab_PythiaHydjet_MTD_Sep8/190908_171953/0000/HiForestAOD_17.root\n'
p151
aS'/store/user/dhangal/PythiaHydjet_MTD_Sep8/QCD_Pt_120_170_5p5TeV_TuneCP5_Pythia8/crab_PythiaHydjet_MTD_Sep8/190908_171953/0000/HiForestAOD_170.root\n'
p152
aS'/store/user/dhangal/PythiaHydjet_MTD_Sep8/QCD_Pt_120_170_5p5TeV_TuneCP5_Pythia8/crab_PythiaHydjet_MTD_Sep8/190908_171953/0000/HiForestAOD_171.root\n'
p153
aS'/store/user/dhangal/PythiaHydjet_MTD_Sep8/QCD_Pt_120_170_5p5TeV_TuneCP5_Pythia8/crab_PythiaHydjet_MTD_Sep8/190908_171953/0000/HiForestAOD_172.root\n'
p154
aS'/store/user/dhangal/PythiaHydjet_MTD_Sep8/QCD_Pt_120_170_5p5TeV_TuneCP5_Pythia8/crab_PythiaHydjet_MTD_Sep8/190908_171953/0000/HiForestAOD_173.root\n'
p155
aS'/store/user/dhangal/PythiaHydjet_MTD_Sep8/QCD_Pt_120_170_5p5TeV_TuneCP5_Pythia8/crab_PythiaHydjet_MTD_Sep8/190908_171953/0000/HiForestAOD_174.root\n'
p156
aS'/store/user/dhangal/PythiaHydjet_MTD_Sep8/QCD_Pt_120_170_5p5TeV_TuneCP5_Pythia8/crab_PythiaHydjet_MTD_Sep8/190908_171953/0000/HiForestAOD_175.root\n'
p157
aS'/store/user/dhangal/PythiaHydjet_MTD_Sep8/QCD_Pt_120_170_5p5TeV_TuneCP5_Pythia8/crab_PythiaHydjet_MTD_Sep8/190908_171953/0000/HiForestAOD_176.root\n'
p158
aS'/store/user/dhangal/PythiaHydjet_MTD_Sep8/QCD_Pt_120_170_5p5TeV_TuneCP5_Pythia8/crab_PythiaHydjet_MTD_Sep8/190908_171953/0000/HiForestAOD_177.root\n'
p159
aS'/store/user/dhangal/PythiaHydjet_MTD_Sep8/QCD_Pt_120_170_5p5TeV_TuneCP5_Pythia8/crab_PythiaHydjet_MTD_Sep8/190908_171953/0000/HiForestAOD_178.root\n'
p160
aS'/store/user/dhangal/PythiaHydjet_MTD_Sep8/QCD_Pt_120_170_5p5TeV_TuneCP5_Pythia8/crab_PythiaHydjet_MTD_Sep8/190908_171953/0000/HiForestAOD_179.root\n'
p161
aS'/store/user/dhangal/PythiaHydjet_MTD_Sep8/QCD_Pt_120_170_5p5TeV_TuneCP5_Pythia8/crab_PythiaHydjet_MTD_Sep8/190908_171953/0000/HiForestAOD_18.root\n'
p162
aS'/store/user/dhangal/PythiaHydjet_MTD_Sep8/QCD_Pt_120_170_5p5TeV_TuneCP5_Pythia8/crab_PythiaHydjet_MTD_Sep8/190908_171953/0000/HiForestAOD_180.root\n'
p163
aS'/store/user/dhangal/PythiaHydjet_MTD_Sep8/QCD_Pt_120_170_5p5TeV_TuneCP5_Pythia8/crab_PythiaHydjet_MTD_Sep8/190908_171953/0000/HiForestAOD_181.root\n'
p164
aS'/store/user/dhangal/PythiaHydjet_MTD_Sep8/QCD_Pt_120_170_5p5TeV_TuneCP5_Pythia8/crab_PythiaHydjet_MTD_Sep8/190908_171953/0000/HiForestAOD_182.root\n'
p165
aS'/store/user/dhangal/PythiaHydjet_MTD_Sep8/QCD_Pt_120_170_5p5TeV_TuneCP5_Pythia8/crab_PythiaHydjet_MTD_Sep8/190908_171953/0000/HiForestAOD_183.root\n'
p166
aS'/store/user/dhangal/PythiaHydjet_MTD_Sep8/QCD_Pt_120_170_5p5TeV_TuneCP5_Pythia8/crab_PythiaHydjet_MTD_Sep8/190908_171953/0000/HiForestAOD_184.root\n'
p167
aS'/store/user/dhangal/PythiaHydjet_MTD_Sep8/QCD_Pt_120_170_5p5TeV_TuneCP5_Pythia8/crab_PythiaHydjet_MTD_Sep8/190908_171953/0000/HiForestAOD_185.root\n'
p168
aS'/store/user/dhangal/PythiaHydjet_MTD_Sep8/QCD_Pt_120_170_5p5TeV_TuneCP5_Pythia8/crab_PythiaHydjet_MTD_Sep8/190908_171953/0000/HiForestAOD_186.root\n'
p169
aS'/store/user/dhangal/PythiaHydjet_MTD_Sep8/QCD_Pt_120_170_5p5TeV_TuneCP5_Pythia8/crab_PythiaHydjet_MTD_Sep8/190908_171953/0000/HiForestAOD_187.root\n'
p170
aS'/store/user/dhangal/PythiaHydjet_MTD_Sep8/QCD_Pt_120_170_5p5TeV_TuneCP5_Pythia8/crab_PythiaHydjet_MTD_Sep8/190908_171953/0000/HiForestAOD_188.root\n'
p171
aS'/store/user/dhangal/PythiaHydjet_MTD_Sep8/QCD_Pt_120_170_5p5TeV_TuneCP5_Pythia8/crab_PythiaHydjet_MTD_Sep8/190908_171953/0000/HiForestAOD_189.root\n'
p172
aS'/store/user/dhangal/PythiaHydjet_MTD_Sep8/QCD_Pt_120_170_5p5TeV_TuneCP5_Pythia8/crab_PythiaHydjet_MTD_Sep8/190908_171953/0000/HiForestAOD_19.root\n'
p173
aS'/store/user/dhangal/PythiaHydjet_MTD_Sep8/QCD_Pt_120_170_5p5TeV_TuneCP5_Pythia8/crab_PythiaHydjet_MTD_Sep8/190908_171953/0000/HiForestAOD_190.root\n'
p174
aS'/store/user/dhangal/PythiaHydjet_MTD_Sep8/QCD_Pt_120_170_5p5TeV_TuneCP5_Pythia8/crab_PythiaHydjet_MTD_Sep8/190908_171953/0000/HiForestAOD_191.root\n'
p175
aS'/store/user/dhangal/PythiaHydjet_MTD_Sep8/QCD_Pt_120_170_5p5TeV_TuneCP5_Pythia8/crab_PythiaHydjet_MTD_Sep8/190908_171953/0000/HiForestAOD_192.root\n'
p176
aS'/store/user/dhangal/PythiaHydjet_MTD_Sep8/QCD_Pt_120_170_5p5TeV_TuneCP5_Pythia8/crab_PythiaHydjet_MTD_Sep8/190908_171953/0000/HiForestAOD_193.root\n'
p177
aS'/store/user/dhangal/PythiaHydjet_MTD_Sep8/QCD_Pt_120_170_5p5TeV_TuneCP5_Pythia8/crab_PythiaHydjet_MTD_Sep8/190908_171953/0000/HiForestAOD_194.root\n'
p178
aS'/store/user/dhangal/PythiaHydjet_MTD_Sep8/QCD_Pt_120_170_5p5TeV_TuneCP5_Pythia8/crab_PythiaHydjet_MTD_Sep8/190908_171953/0000/HiForestAOD_195.root\n'
p179
aS'/store/user/dhangal/PythiaHydjet_MTD_Sep8/QCD_Pt_120_170_5p5TeV_TuneCP5_Pythia8/crab_PythiaHydjet_MTD_Sep8/190908_171953/0000/HiForestAOD_196.root\n'
p180
aS'/store/user/dhangal/PythiaHydjet_MTD_Sep8/QCD_Pt_120_170_5p5TeV_TuneCP5_Pythia8/crab_PythiaHydjet_MTD_Sep8/190908_171953/0000/HiForestAOD_197.root\n'
p181
aS'/store/user/dhangal/PythiaHydjet_MTD_Sep8/QCD_Pt_120_170_5p5TeV_TuneCP5_Pythia8/crab_PythiaHydjet_MTD_Sep8/190908_171953/0000/HiForestAOD_198.root\n'
p182
aS'/store/user/dhangal/PythiaHydjet_MTD_Sep8/QCD_Pt_120_170_5p5TeV_TuneCP5_Pythia8/crab_PythiaHydjet_MTD_Sep8/190908_171953/0000/HiForestAOD_199.root\n'
p183
aS'/store/user/dhangal/PythiaHydjet_MTD_Sep8/QCD_Pt_120_170_5p5TeV_TuneCP5_Pythia8/crab_PythiaHydjet_MTD_Sep8/190908_171953/0000/HiForestAOD_2.root\n'
p184
aS'/store/user/dhangal/PythiaHydjet_MTD_Sep8/QCD_Pt_120_170_5p5TeV_TuneCP5_Pythia8/crab_PythiaHydjet_MTD_Sep8/190908_171953/0000/HiForestAOD_20.root\n'
p185
aS'/store/user/dhangal/PythiaHydjet_MTD_Sep8/QCD_Pt_120_170_5p5TeV_TuneCP5_Pythia8/crab_PythiaHydjet_MTD_Sep8/190908_171953/0000/HiForestAOD_200.root\n'
p186
aS'/store/user/dhangal/PythiaHydjet_MTD_Sep8/QCD_Pt_120_170_5p5TeV_TuneCP5_Pythia8/crab_PythiaHydjet_MTD_Sep8/190908_171953/0000/HiForestAOD_201.root\n'
p187
aS'/store/user/dhangal/PythiaHydjet_MTD_Sep8/QCD_Pt_120_170_5p5TeV_TuneCP5_Pythia8/crab_PythiaHydjet_MTD_Sep8/190908_171953/0000/HiForestAOD_202.root\n'
p188
aS'/store/user/dhangal/PythiaHydjet_MTD_Sep8/QCD_Pt_120_170_5p5TeV_TuneCP5_Pythia8/crab_PythiaHydjet_MTD_Sep8/190908_171953/0000/HiForestAOD_203.root\n'
p189
aS'/store/user/dhangal/PythiaHydjet_MTD_Sep8/QCD_Pt_120_170_5p5TeV_TuneCP5_Pythia8/crab_PythiaHydjet_MTD_Sep8/190908_171953/0000/HiForestAOD_204.root\n'
p190
aS'/store/user/dhangal/PythiaHydjet_MTD_Sep8/QCD_Pt_120_170_5p5TeV_TuneCP5_Pythia8/crab_PythiaHydjet_MTD_Sep8/190908_171953/0000/HiForestAOD_205.root\n'
p191
aS'/store/user/dhangal/PythiaHydjet_MTD_Sep8/QCD_Pt_120_170_5p5TeV_TuneCP5_Pythia8/crab_PythiaHydjet_MTD_Sep8/190908_171953/0000/HiForestAOD_21.root\n'
p192
aS'/store/user/dhangal/PythiaHydjet_MTD_Sep8/QCD_Pt_120_170_5p5TeV_TuneCP5_Pythia8/crab_PythiaHydjet_MTD_Sep8/190908_171953/0000/HiForestAOD_22.root\n'
p193
aS'/store/user/dhangal/PythiaHydjet_MTD_Sep8/QCD_Pt_120_170_5p5TeV_TuneCP5_Pythia8/crab_PythiaHydjet_MTD_Sep8/190908_171953/0000/HiForestAOD_23.root\n'
p194
aS'/store/user/dhangal/PythiaHydjet_MTD_Sep8/QCD_Pt_120_170_5p5TeV_TuneCP5_Pythia8/crab_PythiaHydjet_MTD_Sep8/190908_171953/0000/HiForestAOD_24.root\n'
p195
aS'/store/user/dhangal/PythiaHydjet_MTD_Sep8/QCD_Pt_120_170_5p5TeV_TuneCP5_Pythia8/crab_PythiaHydjet_MTD_Sep8/190908_171953/0000/HiForestAOD_25.root\n'
p196
aS'/store/user/dhangal/PythiaHydjet_MTD_Sep8/QCD_Pt_120_170_5p5TeV_TuneCP5_Pythia8/crab_PythiaHydjet_MTD_Sep8/190908_171953/0000/HiForestAOD_26.root\n'
p197
aS'/store/user/dhangal/PythiaHydjet_MTD_Sep8/QCD_Pt_120_170_5p5TeV_TuneCP5_Pythia8/crab_PythiaHydjet_MTD_Sep8/190908_171953/0000/HiForestAOD_27.root\n'
p198
aS'/store/user/dhangal/PythiaHydjet_MTD_Sep8/QCD_Pt_120_170_5p5TeV_TuneCP5_Pythia8/crab_PythiaHydjet_MTD_Sep8/190908_171953/0000/HiForestAOD_28.root\n'
p199
aS'/store/user/dhangal/PythiaHydjet_MTD_Sep8/QCD_Pt_120_170_5p5TeV_TuneCP5_Pythia8/crab_PythiaHydjet_MTD_Sep8/190908_171953/0000/HiForestAOD_29.root\n'
p200
aS'/store/user/dhangal/PythiaHydjet_MTD_Sep8/QCD_Pt_120_170_5p5TeV_TuneCP5_Pythia8/crab_PythiaHydjet_MTD_Sep8/190908_171953/0000/HiForestAOD_3.root\n'
p201
aS'/store/user/dhangal/PythiaHydjet_MTD_Sep8/QCD_Pt_120_170_5p5TeV_TuneCP5_Pythia8/crab_PythiaHydjet_MTD_Sep8/190908_171953/0000/HiForestAOD_30.root\n'
p202
aS'/store/user/dhangal/PythiaHydjet_MTD_Sep8/QCD_Pt_120_170_5p5TeV_TuneCP5_Pythia8/crab_PythiaHydjet_MTD_Sep8/190908_171953/0000/HiForestAOD_31.root\n'
p203
aS'/store/user/dhangal/PythiaHydjet_MTD_Sep8/QCD_Pt_120_170_5p5TeV_TuneCP5_Pythia8/crab_PythiaHydjet_MTD_Sep8/190908_171953/0000/HiForestAOD_32.root\n'
p204
aS'/store/user/dhangal/PythiaHydjet_MTD_Sep8/QCD_Pt_120_170_5p5TeV_TuneCP5_Pythia8/crab_PythiaHydjet_MTD_Sep8/190908_171953/0000/HiForestAOD_33.root\n'
p205
aS'/store/user/dhangal/PythiaHydjet_MTD_Sep8/QCD_Pt_120_170_5p5TeV_TuneCP5_Pythia8/crab_PythiaHydjet_MTD_Sep8/190908_171953/0000/HiForestAOD_34.root\n'
p206
aS'/store/user/dhangal/PythiaHydjet_MTD_Sep8/QCD_Pt_120_170_5p5TeV_TuneCP5_Pythia8/crab_PythiaHydjet_MTD_Sep8/190908_171953/0000/HiForestAOD_35.root\n'
p207
aS'/store/user/dhangal/PythiaHydjet_MTD_Sep8/QCD_Pt_120_170_5p5TeV_TuneCP5_Pythia8/crab_PythiaHydjet_MTD_Sep8/190908_171953/0000/HiForestAOD_36.root\n'
p208
aS'/store/user/dhangal/PythiaHydjet_MTD_Sep8/QCD_Pt_120_170_5p5TeV_TuneCP5_Pythia8/crab_PythiaHydjet_MTD_Sep8/190908_171953/0000/HiForestAOD_37.root\n'
p209
aS'/store/user/dhangal/PythiaHydjet_MTD_Sep8/QCD_Pt_120_170_5p5TeV_TuneCP5_Pythia8/crab_PythiaHydjet_MTD_Sep8/190908_171953/0000/HiForestAOD_38.root\n'
p210
aS'/store/user/dhangal/PythiaHydjet_MTD_Sep8/QCD_Pt_120_170_5p5TeV_TuneCP5_Pythia8/crab_PythiaHydjet_MTD_Sep8/190908_171953/0000/HiForestAOD_39.root\n'
p211
aS'/store/user/dhangal/PythiaHydjet_MTD_Sep8/QCD_Pt_120_170_5p5TeV_TuneCP5_Pythia8/crab_PythiaHydjet_MTD_Sep8/190908_171953/0000/HiForestAOD_4.root\n'
p212
aS'/store/user/dhangal/PythiaHydjet_MTD_Sep8/QCD_Pt_120_170_5p5TeV_TuneCP5_Pythia8/crab_PythiaHydjet_MTD_Sep8/190908_171953/0000/HiForestAOD_40.root\n'
p213
aS'/store/user/dhangal/PythiaHydjet_MTD_Sep8/QCD_Pt_120_170_5p5TeV_TuneCP5_Pythia8/crab_PythiaHydjet_MTD_Sep8/190908_171953/0000/HiForestAOD_41.root\n'
p214
aS'/store/user/dhangal/PythiaHydjet_MTD_Sep8/QCD_Pt_120_170_5p5TeV_TuneCP5_Pythia8/crab_PythiaHydjet_MTD_Sep8/190908_171953/0000/HiForestAOD_42.root\n'
p215
aS'/store/user/dhangal/PythiaHydjet_MTD_Sep8/QCD_Pt_120_170_5p5TeV_TuneCP5_Pythia8/crab_PythiaHydjet_MTD_Sep8/190908_171953/0000/HiForestAOD_43.root\n'
p216
aS'/store/user/dhangal/PythiaHydjet_MTD_Sep8/QCD_Pt_120_170_5p5TeV_TuneCP5_Pythia8/crab_PythiaHydjet_MTD_Sep8/190908_171953/0000/HiForestAOD_44.root\n'
p217
aS'/store/user/dhangal/PythiaHydjet_MTD_Sep8/QCD_Pt_120_170_5p5TeV_TuneCP5_Pythia8/crab_PythiaHydjet_MTD_Sep8/190908_171953/0000/HiForestAOD_45.root\n'
p218
aS'/store/user/dhangal/PythiaHydjet_MTD_Sep8/QCD_Pt_120_170_5p5TeV_TuneCP5_Pythia8/crab_PythiaHydjet_MTD_Sep8/190908_171953/0000/HiForestAOD_46.root\n'
p219
aS'/store/user/dhangal/PythiaHydjet_MTD_Sep8/QCD_Pt_120_170_5p5TeV_TuneCP5_Pythia8/crab_PythiaHydjet_MTD_Sep8/190908_171953/0000/HiForestAOD_47.root\n'
p220
aS'/store/user/dhangal/PythiaHydjet_MTD_Sep8/QCD_Pt_120_170_5p5TeV_TuneCP5_Pythia8/crab_PythiaHydjet_MTD_Sep8/190908_171953/0000/HiForestAOD_48.root\n'
p221
aS'/store/user/dhangal/PythiaHydjet_MTD_Sep8/QCD_Pt_120_170_5p5TeV_TuneCP5_Pythia8/crab_PythiaHydjet_MTD_Sep8/190908_171953/0000/HiForestAOD_49.root\n'
p222
aS'/store/user/dhangal/PythiaHydjet_MTD_Sep8/QCD_Pt_120_170_5p5TeV_TuneCP5_Pythia8/crab_PythiaHydjet_MTD_Sep8/190908_171953/0000/HiForestAOD_5.root\n'
p223
aS'/store/user/dhangal/PythiaHydjet_MTD_Sep8/QCD_Pt_120_170_5p5TeV_TuneCP5_Pythia8/crab_PythiaHydjet_MTD_Sep8/190908_171953/0000/HiForestAOD_50.root\n'
p224
aS'/store/user/dhangal/PythiaHydjet_MTD_Sep8/QCD_Pt_120_170_5p5TeV_TuneCP5_Pythia8/crab_PythiaHydjet_MTD_Sep8/190908_171953/0000/HiForestAOD_51.root\n'
p225
aS'/store/user/dhangal/PythiaHydjet_MTD_Sep8/QCD_Pt_120_170_5p5TeV_TuneCP5_Pythia8/crab_PythiaHydjet_MTD_Sep8/190908_171953/0000/HiForestAOD_52.root\n'
p226
aS'/store/user/dhangal/PythiaHydjet_MTD_Sep8/QCD_Pt_120_170_5p5TeV_TuneCP5_Pythia8/crab_PythiaHydjet_MTD_Sep8/190908_171953/0000/HiForestAOD_53.root\n'
p227
aS'/store/user/dhangal/PythiaHydjet_MTD_Sep8/QCD_Pt_120_170_5p5TeV_TuneCP5_Pythia8/crab_PythiaHydjet_MTD_Sep8/190908_171953/0000/HiForestAOD_54.root\n'
p228
aS'/store/user/dhangal/PythiaHydjet_MTD_Sep8/QCD_Pt_120_170_5p5TeV_TuneCP5_Pythia8/crab_PythiaHydjet_MTD_Sep8/190908_171953/0000/HiForestAOD_55.root\n'
p229
aS'/store/user/dhangal/PythiaHydjet_MTD_Sep8/QCD_Pt_120_170_5p5TeV_TuneCP5_Pythia8/crab_PythiaHydjet_MTD_Sep8/190908_171953/0000/HiForestAOD_56.root\n'
p230
aS'/store/user/dhangal/PythiaHydjet_MTD_Sep8/QCD_Pt_120_170_5p5TeV_TuneCP5_Pythia8/crab_PythiaHydjet_MTD_Sep8/190908_171953/0000/HiForestAOD_57.root\n'
p231
aS'/store/user/dhangal/PythiaHydjet_MTD_Sep8/QCD_Pt_120_170_5p5TeV_TuneCP5_Pythia8/crab_PythiaHydjet_MTD_Sep8/190908_171953/0000/HiForestAOD_58.root\n'
p232
aS'/store/user/dhangal/PythiaHydjet_MTD_Sep8/QCD_Pt_120_170_5p5TeV_TuneCP5_Pythia8/crab_PythiaHydjet_MTD_Sep8/190908_171953/0000/HiForestAOD_59.root\n'
p233
aS'/store/user/dhangal/PythiaHydjet_MTD_Sep8/QCD_Pt_120_170_5p5TeV_TuneCP5_Pythia8/crab_PythiaHydjet_MTD_Sep8/190908_171953/0000/HiForestAOD_6.root\n'
p234
aS'/store/user/dhangal/PythiaHydjet_MTD_Sep8/QCD_Pt_120_170_5p5TeV_TuneCP5_Pythia8/crab_PythiaHydjet_MTD_Sep8/190908_171953/0000/HiForestAOD_60.root\n'
p235
aS'/store/user/dhangal/PythiaHydjet_MTD_Sep8/QCD_Pt_120_170_5p5TeV_TuneCP5_Pythia8/crab_PythiaHydjet_MTD_Sep8/190908_171953/0000/HiForestAOD_61.root\n'
p236
aS'/store/user/dhangal/PythiaHydjet_MTD_Sep8/QCD_Pt_120_170_5p5TeV_TuneCP5_Pythia8/crab_PythiaHydjet_MTD_Sep8/190908_171953/0000/HiForestAOD_62.root\n'
p237
aS'/store/user/dhangal/PythiaHydjet_MTD_Sep8/QCD_Pt_120_170_5p5TeV_TuneCP5_Pythia8/crab_PythiaHydjet_MTD_Sep8/190908_171953/0000/HiForestAOD_63.root\n'
p238
aS'/store/user/dhangal/PythiaHydjet_MTD_Sep8/QCD_Pt_120_170_5p5TeV_TuneCP5_Pythia8/crab_PythiaHydjet_MTD_Sep8/190908_171953/0000/HiForestAOD_64.root\n'
p239
aS'/store/user/dhangal/PythiaHydjet_MTD_Sep8/QCD_Pt_120_170_5p5TeV_TuneCP5_Pythia8/crab_PythiaHydjet_MTD_Sep8/190908_171953/0000/HiForestAOD_65.root\n'
p240
aS'/store/user/dhangal/PythiaHydjet_MTD_Sep8/QCD_Pt_120_170_5p5TeV_TuneCP5_Pythia8/crab_PythiaHydjet_MTD_Sep8/190908_171953/0000/HiForestAOD_66.root\n'
p241
aS'/store/user/dhangal/PythiaHydjet_MTD_Sep8/QCD_Pt_120_170_5p5TeV_TuneCP5_Pythia8/crab_PythiaHydjet_MTD_Sep8/190908_171953/0000/HiForestAOD_67.root\n'
p242
aS'/store/user/dhangal/PythiaHydjet_MTD_Sep8/QCD_Pt_120_170_5p5TeV_TuneCP5_Pythia8/crab_PythiaHydjet_MTD_Sep8/190908_171953/0000/HiForestAOD_68.root\n'
p243
aS'/store/user/dhangal/PythiaHydjet_MTD_Sep8/QCD_Pt_120_170_5p5TeV_TuneCP5_Pythia8/crab_PythiaHydjet_MTD_Sep8/190908_171953/0000/HiForestAOD_69.root\n'
p244
aS'/store/user/dhangal/PythiaHydjet_MTD_Sep8/QCD_Pt_120_170_5p5TeV_TuneCP5_Pythia8/crab_PythiaHydjet_MTD_Sep8/190908_171953/0000/HiForestAOD_7.root\n'
p245
aS'/store/user/dhangal/PythiaHydjet_MTD_Sep8/QCD_Pt_120_170_5p5TeV_TuneCP5_Pythia8/crab_PythiaHydjet_MTD_Sep8/190908_171953/0000/HiForestAOD_70.root\n'
p246
aS'/store/user/dhangal/PythiaHydjet_MTD_Sep8/QCD_Pt_120_170_5p5TeV_TuneCP5_Pythia8/crab_PythiaHydjet_MTD_Sep8/190908_171953/0000/HiForestAOD_71.root\n'
p247
aS'/store/user/dhangal/PythiaHydjet_MTD_Sep8/QCD_Pt_120_170_5p5TeV_TuneCP5_Pythia8/crab_PythiaHydjet_MTD_Sep8/190908_171953/0000/HiForestAOD_72.root\n'
p248
aS'/store/user/dhangal/PythiaHydjet_MTD_Sep8/QCD_Pt_120_170_5p5TeV_TuneCP5_Pythia8/crab_PythiaHydjet_MTD_Sep8/190908_171953/0000/HiForestAOD_73.root\n'
p249
aS'/store/user/dhangal/PythiaHydjet_MTD_Sep8/QCD_Pt_120_170_5p5TeV_TuneCP5_Pythia8/crab_PythiaHydjet_MTD_Sep8/190908_171953/0000/HiForestAOD_74.root\n'
p250
aS'/store/user/dhangal/PythiaHydjet_MTD_Sep8/QCD_Pt_120_170_5p5TeV_TuneCP5_Pythia8/crab_PythiaHydjet_MTD_Sep8/190908_171953/0000/HiForestAOD_75.root\n'
p251
aS'/store/user/dhangal/PythiaHydjet_MTD_Sep8/QCD_Pt_120_170_5p5TeV_TuneCP5_Pythia8/crab_PythiaHydjet_MTD_Sep8/190908_171953/0000/HiForestAOD_76.root\n'
p252
aS'/store/user/dhangal/PythiaHydjet_MTD_Sep8/QCD_Pt_120_170_5p5TeV_TuneCP5_Pythia8/crab_PythiaHydjet_MTD_Sep8/190908_171953/0000/HiForestAOD_77.root\n'
p253
aS'/store/user/dhangal/PythiaHydjet_MTD_Sep8/QCD_Pt_120_170_5p5TeV_TuneCP5_Pythia8/crab_PythiaHydjet_MTD_Sep8/190908_171953/0000/HiForestAOD_78.root\n'
p254
aS'/store/user/dhangal/PythiaHydjet_MTD_Sep8/QCD_Pt_120_170_5p5TeV_TuneCP5_Pythia8/crab_PythiaHydjet_MTD_Sep8/190908_171953/0000/HiForestAOD_79.root\n'
p255
aS'/store/user/dhangal/PythiaHydjet_MTD_Sep8/QCD_Pt_120_170_5p5TeV_TuneCP5_Pythia8/crab_PythiaHydjet_MTD_Sep8/190908_171953/0000/HiForestAOD_8.root\n'
p256
aS'/store/user/dhangal/PythiaHydjet_MTD_Sep8/QCD_Pt_120_170_5p5TeV_TuneCP5_Pythia8/crab_PythiaHydjet_MTD_Sep8/190908_171953/0000/HiForestAOD_80.root\n'
p257
aS'/store/user/dhangal/PythiaHydjet_MTD_Sep8/QCD_Pt_120_170_5p5TeV_TuneCP5_Pythia8/crab_PythiaHydjet_MTD_Sep8/190908_171953/0000/HiForestAOD_81.root\n'
p258
aS'/store/user/dhangal/PythiaHydjet_MTD_Sep8/QCD_Pt_120_170_5p5TeV_TuneCP5_Pythia8/crab_PythiaHydjet_MTD_Sep8/190908_171953/0000/HiForestAOD_82.root\n'
p259
aS'/store/user/dhangal/PythiaHydjet_MTD_Sep8/QCD_Pt_120_170_5p5TeV_TuneCP5_Pythia8/crab_PythiaHydjet_MTD_Sep8/190908_171953/0000/HiForestAOD_83.root\n'
p260
aS'/store/user/dhangal/PythiaHydjet_MTD_Sep8/QCD_Pt_120_170_5p5TeV_TuneCP5_Pythia8/crab_PythiaHydjet_MTD_Sep8/190908_171953/0000/HiForestAOD_84.root\n'
p261
aS'/store/user/dhangal/PythiaHydjet_MTD_Sep8/QCD_Pt_120_170_5p5TeV_TuneCP5_Pythia8/crab_PythiaHydjet_MTD_Sep8/190908_171953/0000/HiForestAOD_85.root\n'
p262
aS'/store/user/dhangal/PythiaHydjet_MTD_Sep8/QCD_Pt_120_170_5p5TeV_TuneCP5_Pythia8/crab_PythiaHydjet_MTD_Sep8/190908_171953/0000/HiForestAOD_86.root\n'
p263
aS'/store/user/dhangal/PythiaHydjet_MTD_Sep8/QCD_Pt_120_170_5p5TeV_TuneCP5_Pythia8/crab_PythiaHydjet_MTD_Sep8/190908_171953/0000/HiForestAOD_87.root\n'
p264
aS'/store/user/dhangal/PythiaHydjet_MTD_Sep8/QCD_Pt_120_170_5p5TeV_TuneCP5_Pythia8/crab_PythiaHydjet_MTD_Sep8/190908_171953/0000/HiForestAOD_88.root\n'
p265
aS'/store/user/dhangal/PythiaHydjet_MTD_Sep8/QCD_Pt_120_170_5p5TeV_TuneCP5_Pythia8/crab_PythiaHydjet_MTD_Sep8/190908_171953/0000/HiForestAOD_89.root\n'
p266
aS'/store/user/dhangal/PythiaHydjet_MTD_Sep8/QCD_Pt_120_170_5p5TeV_TuneCP5_Pythia8/crab_PythiaHydjet_MTD_Sep8/190908_171953/0000/HiForestAOD_9.root\n'
p267
aS'/store/user/dhangal/PythiaHydjet_MTD_Sep8/QCD_Pt_120_170_5p5TeV_TuneCP5_Pythia8/crab_PythiaHydjet_MTD_Sep8/190908_171953/0000/HiForestAOD_90.root\n'
p268
aS'/store/user/dhangal/PythiaHydjet_MTD_Sep8/QCD_Pt_120_170_5p5TeV_TuneCP5_Pythia8/crab_PythiaHydjet_MTD_Sep8/190908_171953/0000/HiForestAOD_91.root\n'
p269
aS'/store/user/dhangal/PythiaHydjet_MTD_Sep8/QCD_Pt_120_170_5p5TeV_TuneCP5_Pythia8/crab_PythiaHydjet_MTD_Sep8/190908_171953/0000/HiForestAOD_92.root\n'
p270
aS'/store/user/dhangal/PythiaHydjet_MTD_Sep8/QCD_Pt_120_170_5p5TeV_TuneCP5_Pythia8/crab_PythiaHydjet_MTD_Sep8/190908_171953/0000/HiForestAOD_93.root\n'
p271
aS'/store/user/dhangal/PythiaHydjet_MTD_Sep8/QCD_Pt_120_170_5p5TeV_TuneCP5_Pythia8/crab_PythiaHydjet_MTD_Sep8/190908_171953/0000/HiForestAOD_94.root\n'
p272
aS'/store/user/dhangal/PythiaHydjet_MTD_Sep8/QCD_Pt_120_170_5p5TeV_TuneCP5_Pythia8/crab_PythiaHydjet_MTD_Sep8/190908_171953/0000/HiForestAOD_95.root\n'
p273
aS'/store/user/dhangal/PythiaHydjet_MTD_Sep8/QCD_Pt_120_170_5p5TeV_TuneCP5_Pythia8/crab_PythiaHydjet_MTD_Sep8/190908_171953/0000/HiForestAOD_96.root\n'
p274
aS'/store/user/dhangal/PythiaHydjet_MTD_Sep8/QCD_Pt_120_170_5p5TeV_TuneCP5_Pythia8/crab_PythiaHydjet_MTD_Sep8/190908_171953/0000/HiForestAOD_97.root\n'
p275
aS'/store/user/dhangal/PythiaHydjet_MTD_Sep8/QCD_Pt_120_170_5p5TeV_TuneCP5_Pythia8/crab_PythiaHydjet_MTD_Sep8/190908_171953/0000/HiForestAOD_98.root\n'
p276
aS'/store/user/dhangal/PythiaHydjet_MTD_Sep8/QCD_Pt_120_170_5p5TeV_TuneCP5_Pythia8/crab_PythiaHydjet_MTD_Sep8/190908_171953/0000/HiForestAOD_99.root\n'
p277
asg60
I205
sbsg31
g3
(g9
g5
NtRp278
(dp279
S'outputFiles'
p280
(lp281
S'PbPbMC_mtd_jettrackcorr_Sep9.root'
p282
asg12
I00
sS'scriptArgs'
p283
(lp284
S'card=cardDijetPbPbMC.input'
p285
aS'output=PbPbMC_mtd_jettrackcorr_Sep9.root'
p286
aS'location=1'
p287
asg13
S''
sg14
g15
((lp288
g280
aS'maxMemoryMB'
p289
ag283
aS'scriptExe'
p290
aS'pluginName'
p291
aS'psetName'
p292
aS'inputFiles'
p293
aS'maxJobRuntimeMin'
p294
atRp295
sg20
g31
sg290
S'compileAndRun.sh'
p296
sg21
(dp297
sg291
S'Analysis'
p298
sg23
g15
((ltRp299
sg292
S'PSet.py'
p300
sg26
Nsg293
(lp301
S'FrameworkJobReport.xml'
p302
aS'dijet5TeV.tar.gz'
p303
aS'cardDijetPbPbMC.input'
p304
asg294
I400
sg289
I2000
sbsbsS'voGroup'
p305
S''
sS'Server'
p306
S'cmsweb.cern.ch'
p307
sS'instance'
p308
S'prod'
p309
sS'RequestName'
p310
V190909_202518:dhangal_crab_PbPbMC_mtd_jettrackcorr_Sep9
p311
sS'voRole'
p312
S'NULL'
p313
sS'Port'
p314
S''
s.